; ModuleID = '5/112.c'
source_filename = "5/112.c"
target datalayout = "e-m:e-p270:32:32-p271:32:32-p272:64:64-i64:64-f80:128-n8:16:32:64-S128"
target triple = "x86_64-pc-linux-gnu"

@.str = private unnamed_addr constant [4 x i8] c"%lf\00", align 1
@.str.1 = private unnamed_addr constant [3 x i8] c"%s\00", align 1
@.str.2 = private unnamed_addr constant [6 x i8] c"error\00", align 1
@.str.3 = private unnamed_addr constant [4 x i8] c"yes\00", align 1
@.str.4 = private unnamed_addr constant [3 x i8] c"no\00", align 1

; Function Attrs: noinline nounwind uwtable
define dso_local i32 @main() #0 {
  %1 = alloca i32, align 4
  %2 = alloca double, align 8
  %3 = alloca double, align 8
  %4 = alloca i32, align 4
  %5 = alloca i32, align 4
  %6 = alloca i32, align 4
  %7 = alloca i32, align 4
  %8 = alloca [500 x i8], align 16
  %9 = alloca [500 x i8], align 16
  store i32 0, i32* %1, align 4
  store i32 0, i32* %7, align 4
  %10 = call i32 (i8*, ...) @__isoc99_scanf(i8* getelementptr inbounds ([4 x i8], [4 x i8]* @.str, i64 0, i64 0), double* %2)
  %11 = call i32 (i8*, ...) @__isoc99_scanf(i8* getelementptr inbounds ([3 x i8], [3 x i8]* @.str.1, i64 0, i64 0), [500 x i8]* %8)
  %12 = call i32 (i8*, ...) @__isoc99_scanf(i8* getelementptr inbounds ([3 x i8], [3 x i8]* @.str.1, i64 0, i64 0), [500 x i8]* %9)
  %13 = getelementptr inbounds [500 x i8], [500 x i8]* %8, i64 0, i64 0
  %14 = call i64 @strlen(i8* %13) #3
  %15 = trunc i64 %14 to i32
  store i32 %15, i32* %5, align 4
  %16 = getelementptr inbounds [500 x i8], [500 x i8]* %9, i64 0, i64 0
  %17 = call i64 @strlen(i8* %16) #3
  %18 = trunc i64 %17 to i32
  store i32 %18, i32* %6, align 4
  %19 = load i32, i32* %5, align 4
  %20 = load i32, i32* %6, align 4
  %21 = icmp ne i32 %19, %20
  br i1 %21, label %22, label %24

22:                                               ; preds = %0
  %23 = call i32 (i8*, ...) @printf(i8* getelementptr inbounds ([6 x i8], [6 x i8]* @.str.2, i64 0, i64 0))
  store i32 0, i32* %1, align 4
  br label %131

24:                                               ; preds = %0
  store i32 0, i32* %4, align 4
  br label %25

25:                                               ; preds = %90, %24
  %26 = load i32, i32* %4, align 4
  %27 = load i32, i32* %5, align 4
  %28 = icmp slt i32 %26, %27
  br i1 %28, label %29, label %93

29:                                               ; preds = %25
  %30 = load i32, i32* %4, align 4
  %31 = sext i32 %30 to i64
  %32 = getelementptr inbounds [500 x i8], [500 x i8]* %8, i64 0, i64 %31
  %33 = load i8, i8* %32, align 1
  %34 = sext i8 %33 to i32
  %35 = icmp ne i32 %34, 65
  br i1 %35, label %36, label %59

36:                                               ; preds = %29
  %37 = load i32, i32* %4, align 4
  %38 = sext i32 %37 to i64
  %39 = getelementptr inbounds [500 x i8], [500 x i8]* %8, i64 0, i64 %38
  %40 = load i8, i8* %39, align 1
  %41 = sext i8 %40 to i32
  %42 = icmp ne i32 %41, 84
  br i1 %42, label %43, label %59

43:                                               ; preds = %36
  %44 = load i32, i32* %4, align 4
  %45 = sext i32 %44 to i64
  %46 = getelementptr inbounds [500 x i8], [500 x i8]* %8, i64 0, i64 %45
  %47 = load i8, i8* %46, align 1
  %48 = sext i8 %47 to i32
  %49 = icmp ne i32 %48, 67
  br i1 %49, label %50, label %59

50:                                               ; preds = %43
  %51 = load i32, i32* %4, align 4
  %52 = sext i32 %51 to i64
  %53 = getelementptr inbounds [500 x i8], [500 x i8]* %8, i64 0, i64 %52
  %54 = load i8, i8* %53, align 1
  %55 = sext i8 %54 to i32
  %56 = icmp ne i32 %55, 71
  br i1 %56, label %57, label %59

57:                                               ; preds = %50
  %58 = call i32 (i8*, ...) @printf(i8* getelementptr inbounds ([6 x i8], [6 x i8]* @.str.2, i64 0, i64 0))
  store i32 0, i32* %1, align 4
  br label %131

59:                                               ; preds = %50, %43, %36, %29
  %60 = load i32, i32* %4, align 4
  %61 = sext i32 %60 to i64
  %62 = getelementptr inbounds [500 x i8], [500 x i8]* %9, i64 0, i64 %61
  %63 = load i8, i8* %62, align 1
  %64 = sext i8 %63 to i32
  %65 = icmp ne i32 %64, 65
  br i1 %65, label %66, label %89

66:                                               ; preds = %59
  %67 = load i32, i32* %4, align 4
  %68 = sext i32 %67 to i64
  %69 = getelementptr inbounds [500 x i8], [500 x i8]* %9, i64 0, i64 %68
  %70 = load i8, i8* %69, align 1
  %71 = sext i8 %70 to i32
  %72 = icmp ne i32 %71, 84
  br i1 %72, label %73, label %89

73:                                               ; preds = %66
  %74 = load i32, i32* %4, align 4
  %75 = sext i32 %74 to i64
  %76 = getelementptr inbounds [500 x i8], [500 x i8]* %9, i64 0, i64 %75
  %77 = load i8, i8* %76, align 1
  %78 = sext i8 %77 to i32
  %79 = icmp ne i32 %78, 67
  br i1 %79, label %80, label %89

80:                                               ; preds = %73
  %81 = load i32, i32* %4, align 4
  %82 = sext i32 %81 to i64
  %83 = getelementptr inbounds [500 x i8], [500 x i8]* %9, i64 0, i64 %82
  %84 = load i8, i8* %83, align 1
  %85 = sext i8 %84 to i32
  %86 = icmp ne i32 %85, 71
  br i1 %86, label %87, label %89

87:                                               ; preds = %80
  %88 = call i32 (i8*, ...) @printf(i8* getelementptr inbounds ([6 x i8], [6 x i8]* @.str.2, i64 0, i64 0))
  store i32 0, i32* %1, align 4
  br label %131

89:                                               ; preds = %80, %73, %66, %59
  br label %90

90:                                               ; preds = %89
  %91 = load i32, i32* %4, align 4
  %92 = add nsw i32 %91, 1
  store i32 %92, i32* %4, align 4
  br label %25

93:                                               ; preds = %25
  store i32 0, i32* %4, align 4
  br label %94

94:                                               ; preds = %114, %93
  %95 = load i32, i32* %4, align 4
  %96 = load i32, i32* %5, align 4
  %97 = icmp slt i32 %95, %96
  br i1 %97, label %98, label %117

98:                                               ; preds = %94
  %99 = load i32, i32* %4, align 4
  %100 = sext i32 %99 to i64
  %101 = getelementptr inbounds [500 x i8], [500 x i8]* %8, i64 0, i64 %100
  %102 = load i8, i8* %101, align 1
  %103 = sext i8 %102 to i32
  %104 = load i32, i32* %4, align 4
  %105 = sext i32 %104 to i64
  %106 = getelementptr inbounds [500 x i8], [500 x i8]* %9, i64 0, i64 %105
  %107 = load i8, i8* %106, align 1
  %108 = sext i8 %107 to i32
  %109 = icmp eq i32 %103, %108
  br i1 %109, label %110, label %113

110:                                              ; preds = %98
  %111 = load i32, i32* %7, align 4
  %112 = add nsw i32 %111, 1
  store i32 %112, i32* %7, align 4
  br label %113

113:                                              ; preds = %110, %98
  br label %114

114:                                              ; preds = %113
  %115 = load i32, i32* %4, align 4
  %116 = add nsw i32 %115, 1
  store i32 %116, i32* %4, align 4
  br label %94

117:                                              ; preds = %94
  %118 = load i32, i32* %7, align 4
  %119 = sitofp i32 %118 to double
  %120 = load i32, i32* %5, align 4
  %121 = sitofp i32 %120 to double
  %122 = fdiv double %119, %121
  store double %122, double* %3, align 8
  %123 = load double, double* %3, align 8
  %124 = load double, double* %2, align 8
  %125 = fcmp ogt double %123, %124
  br i1 %125, label %126, label %128

126:                                              ; preds = %117
  %127 = call i32 (i8*, ...) @printf(i8* getelementptr inbounds ([4 x i8], [4 x i8]* @.str.3, i64 0, i64 0))
  br label %130

128:                                              ; preds = %117
  %129 = call i32 (i8*, ...) @printf(i8* getelementptr inbounds ([3 x i8], [3 x i8]* @.str.4, i64 0, i64 0))
  br label %130

130:                                              ; preds = %128, %126
  store i32 0, i32* %1, align 4
  br label %131

131:                                              ; preds = %130, %87, %57, %22
  %132 = load i32, i32* %1, align 4
  ret i32 %132
}

declare dso_local i32 @__isoc99_scanf(i8*, ...) #1

; Function Attrs: nounwind readonly
declare dso_local i64 @strlen(i8*) #2

declare dso_local i32 @printf(i8*, ...) #1


!llvm.module.flags = !{!0}
!llvm.ident = !{!1}

!0 = !{i32 1, !"wchar_size", i32 4}
!1 = !{!"clang version 10.0.0-4ubuntu1 "}
